; Function Attrs: mustprogress uwtable
define void @_ZN2cv12VideoCaptureC2Eii(ptr noundef nonnull align 8 dereferenceable(41) initializes((0, 41)) %0, i32 noundef %1, i32 noundef %2) unnamed_addr #3 align 2 personality ptr @__gxx_personality_v0 {
  %4 = alloca %"class.cv::utils::trace::details::Region", align 8
  store ptr getelementptr inbounds nuw inrange(-16, 128) (i8, ptr @_ZTVN2cv12VideoCaptureE, i64 16), ptr %0, align 8, !tbaa !10
  %5 = getelementptr inbounds nuw i8, ptr %0, i64 8
  tail call void @llvm.memset.p0.i64(ptr noundef nonnull align 8 dereferenceable(33) %5, i8 0, i64 33, i1 false)
  call void @llvm.lifetime.start.p0(i64 16, ptr nonnull %4) #27
  invoke void @_ZN2cv5utils5trace7details6RegionC1ERKNS3_21LocationStaticStorageE(ptr noundef nonnull align 8 dereferenceable(12) %4, ptr noundef nonnull align 8 dereferenceable(32) @_ZZN2cv12VideoCaptureC1EiiE24__cv_trace_location_fn98)
          to label %6 unwind label %18

6:                                                ; preds = %3
  %7 = load ptr, ptr %0, align 8, !tbaa !10
  %8 = getelementptr inbounds nuw i8, ptr %7, i64 32
  %9 = load ptr, ptr %8, align 8
  %10 = invoke noundef zeroext i1 %9(ptr noundef nonnull align 8 dereferenceable(41) %0, i32 noundef %1, i32 noundef %2)
          to label %11 unwind label %20

11:                                               ; preds = %6
  %12 = getelementptr inbounds nuw i8, ptr %4, i64 8
  %13 = load i32, ptr %12, align 8, !tbaa !12
  %.not.i = icmp eq i32 %13, 0
  br i1 %.not.i, label %_ZN2cv5utils5trace7details6RegionD2Ev.exit, label %14

14:                                               ; preds = %11
  invoke void @_ZN2cv5utils5trace7details6Region7destroyEv(ptr noundef nonnull align 8 dereferenceable(12) %4)
          to label %_ZN2cv5utils5trace7details6RegionD2Ev.exit unwind label %15

15:                                               ; preds = %14
  %16 = landingpad { ptr, i32 }
          catch ptr null
  %17 = extractvalue { ptr, i32 } %16, 0
  call void @__clang_call_terminate(ptr %17) #26
  unreachable

_ZN2cv5utils5trace7details6RegionD2Ev.exit:       ; preds = %11, %14
  call void @llvm.lifetime.end.p0(i64 16, ptr nonnull %4) #27
  ret void

18:                                               ; preds = %3
  %19 = landingpad { ptr, i32 }
          cleanup
  br label %22

20:                                               ; preds = %6
  %21 = landingpad { ptr, i32 }
          cleanup
  call void @_ZN2cv5utils5trace7details6RegionD2Ev(ptr noundef nonnull align 8 dereferenceable(12) %4) #27
  br label %22

22:                                               ; preds = %20, %18
  %.pn = phi { ptr, i32 } [ %21, %20 ], [ %19, %18 ]
  %23 = getelementptr inbounds nuw i8, ptr %0, i64 24
  call void @llvm.lifetime.end.p0(i64 16, ptr nonnull %4) #27
  call void @_ZNSt12__shared_ptrIN2cv13IVideoCaptureELN9__gnu_cxx12_Lock_policyE2EED2Ev(ptr noundef nonnull align 8 dereferenceable(16) %23) #27
  call void @_ZNSt12__shared_ptrI9CvCaptureLN9__gnu_cxx12_Lock_policyE2EED2Ev(ptr noundef nonnull align 8 dereferenceable(16) %5) #27
  resume { ptr, i32 } %.pn
}